; Function Attrs: mustprogress uwtable
define void @_ZN8QuantLib20ForwardRateAgreementC2ERKN5boost10shared_ptrINS_9IborIndexEEERKNS_4DateENS_8Position4TypeEddNS_6HandleINS_18YieldTermStructureEEE(ptr noundef nonnull align 8 dereferenceable(304) %this, ptr noundef %vtt, ptr nocapture noundef nonnull readonly align 8 dereferenceable(16) %index, ptr noundef nonnull align 8 dereferenceable(8) %valueDate, i32 noundef %type, double noundef %strikeForwardRate, double noundef %notionalAmount, ptr nocapture noundef %discountCurve) unnamed_addr #6 align 2 personality ptr @__gxx_personality_v0 {
entry:
  %ref.tmp = alloca %"class.QuantLib::Date", align 8
  %agg.tmp = alloca %"class.QuantLib::Handle", align 8
  call void @llvm.lifetime.start.p0(i64 8, ptr nonnull %ref.tmp) #27
  %0 = load ptr, ptr %index, align 8, !tbaa !44
  %cmp.not.i = icmp eq ptr %0, null
  br i1 %cmp.not.i, label %cond.false.i, label %_ZNK5boost10shared_ptrIN8QuantLib9IborIndexEEptEv.exit, !prof !46

cond.false.i:                                     ; preds = %entry
  tail call void @_ZN5boost16assertion_failedEPKcS1_S1_l(ptr noundef nonnull @.str.13, ptr noundef nonnull @__PRETTY_FUNCTION__._ZNK5boost10shared_ptrIN8QuantLib9IborIndexEEptEv, ptr noundef nonnull @.str.14, i64 noundef 784)
  %.pre.i = load ptr, ptr %index, align 8, !tbaa !44
  br label %_ZNK5boost10shared_ptrIN8QuantLib9IborIndexEEptEv.exit

_ZNK5boost10shared_ptrIN8QuantLib9IborIndexEEptEv.exit: ; preds = %entry, %cond.false.i
  %1 = phi ptr [ %0, %entry ], [ %.pre.i, %cond.false.i ]
  %vtable = load ptr, ptr %1, align 8, !tbaa !35
  %vfn = getelementptr inbounds i8, ptr %vtable, i64 88
  %2 = load ptr, ptr %vfn, align 8
  %call3 = tail call i64 %2(ptr noundef nonnull align 8 dereferenceable(265) %1, ptr noundef nonnull align 8 dereferenceable(8) %valueDate)
  store i64 %call3, ptr %ref.tmp, align 8
  %3 = load ptr, ptr %discountCurve, align 8, !tbaa !47
  store ptr %3, ptr %agg.tmp, align 8, !tbaa !47
  %pn.i.i = getelementptr inbounds nuw i8, ptr %agg.tmp, i64 8
  %pn3.i.i = getelementptr inbounds nuw i8, ptr %discountCurve, i64 8
  %4 = load ptr, ptr %pn3.i.i, align 8, !tbaa !37
  store ptr %4, ptr %pn.i.i, align 8, !tbaa !37
  tail call void @llvm.memset.p0.i64(ptr noundef nonnull align 8 dereferenceable(16) %discountCurve, i8 0, i64 16, i1 false)
  invoke void @_ZN8QuantLib20ForwardRateAgreementC2ERKN5boost10shared_ptrINS_9IborIndexEEERKNS_4DateES9_NS_8Position4TypeEddNS_6HandleINS_18YieldTermStructureEEE(ptr noundef nonnull align 8 dereferenceable(304) %this, ptr noundef %vtt, ptr noundef nonnull align 8 dereferenceable(16) %index, ptr noundef nonnull align 8 dereferenceable(8) %valueDate, ptr noundef nonnull align 8 dereferenceable(8) %ref.tmp, i32 noundef %type, double noundef %strikeForwardRate, double noundef %notionalAmount, ptr noundef nonnull %agg.tmp)
          to label %invoke.cont unwind label %lpad

invoke.cont:                                      ; preds = %_ZNK5boost10shared_ptrIN8QuantLib9IborIndexEEptEv.exit
  %5 = load ptr, ptr %pn.i.i, align 8, !tbaa !37
  %cmp.not.i.i.i = icmp eq ptr %5, null
  br i1 %cmp.not.i.i.i, label %_ZN8QuantLib6HandleINS_18YieldTermStructureEED2Ev.exit, label %if.then.i.i.i

if.then.i.i.i:                                    ; preds = %invoke.cont
  %use_count_.i.i.i.i = getelementptr inbounds nuw i8, ptr %5, i64 8
  %6 = atomicrmw sub ptr %use_count_.i.i.i.i, i32 1 acq_rel, align 4
  %cmp.i.i.i.i = icmp eq i32 %6, 1
  br i1 %cmp.i.i.i.i, label %if.then.i.i.i.i, label %_ZN8QuantLib6HandleINS_18YieldTermStructureEED2Ev.exit

if.then.i.i.i.i:                                  ; preds = %if.then.i.i.i
  %vtable.i.i.i.i = load ptr, ptr %5, align 8, !tbaa !35
  %vfn.i.i.i.i = getelementptr inbounds i8, ptr %vtable.i.i.i.i, i64 16
  %7 = load ptr, ptr %vfn.i.i.i.i, align 8
  invoke void %7(ptr noundef nonnull align 8 dereferenceable(16) %5)
          to label %.noexc.i.i.i unwind label %terminate.lpad.i.i.i

.noexc.i.i.i:                                     ; preds = %if.then.i.i.i.i
  %weak_count_.i.i.i.i.i = getelementptr inbounds nuw i8, ptr %5, i64 12
  %8 = atomicrmw sub ptr %weak_count_.i.i.i.i.i, i32 1 acq_rel, align 4
  %cmp.i.i.i.i.i = icmp eq i32 %8, 1
  br i1 %cmp.i.i.i.i.i, label %if.then.i.i.i.i.i, label %_ZN8QuantLib6HandleINS_18YieldTermStructureEED2Ev.exit

if.then.i.i.i.i.i:                                ; preds = %.noexc.i.i.i
  %vtable.i.i.i.i.i = load ptr, ptr %5, align 8, !tbaa !35
  %vfn.i.i.i.i.i = getelementptr inbounds i8, ptr %vtable.i.i.i.i.i, i64 24
  %9 = load ptr, ptr %vfn.i.i.i.i.i, align 8
  invoke void %9(ptr noundef nonnull align 8 dereferenceable(16) %5)
          to label %_ZN8QuantLib6HandleINS_18YieldTermStructureEED2Ev.exit unwind label %terminate.lpad.i.i.i

terminate.lpad.i.i.i:                             ; preds = %if.then.i.i.i.i.i, %if.then.i.i.i.i
  %10 = landingpad { ptr, i32 }
          catch ptr null
  %11 = extractvalue { ptr, i32 } %10, 0
  tail call void @__clang_call_terminate(ptr %11) #28
  unreachable

_ZN8QuantLib6HandleINS_18YieldTermStructureEED2Ev.exit: ; preds = %invoke.cont, %if.then.i.i.i, %.noexc.i.i.i, %if.then.i.i.i.i.i
  call void @llvm.lifetime.end.p0(i64 8, ptr nonnull %ref.tmp) #27
  %useIndexedCoupon_ = getelementptr inbounds nuw i8, ptr %this, i64 216
  store i8 1, ptr %useIndexedCoupon_, align 8, !tbaa !49
  ret void

lpad:                                             ; preds = %_ZNK5boost10shared_ptrIN8QuantLib9IborIndexEEptEv.exit
  %12 = landingpad { ptr, i32 }
          cleanup
  call void @_ZN8QuantLib6HandleINS_18YieldTermStructureEED2Ev(ptr noundef nonnull align 8 dereferenceable(16) %agg.tmp) #27
  call void @llvm.lifetime.end.p0(i64 8, ptr nonnull %ref.tmp) #27
  resume { ptr, i32 } %12
}